; Function Attrs: mustprogress uwtable
define noundef double @_ZNK8QuantLib19StochasticProcess1D8varianceEddd(ptr noundef nonnull align 8 dereferenceable(144) %this, double noundef %t0, double noundef %x0, double noundef %dt) unnamed_addr #7 align 2 {
entry:
  %discretization_ = getelementptr inbounds nuw i8, ptr %this, i64 128
  %0 = load ptr, ptr %discretization_, align 8, !tbaa !70
  %cmp.not.i = icmp eq ptr %0, null
  br i1 %cmp.not.i, label %cond.false.i, label %_ZNK5boost10shared_ptrIN8QuantLib19StochasticProcess1D14discretizationEEptEv.exit, !prof !34

cond.false.i:                                     ; preds = %entry
  tail call void @_ZN5boost16assertion_failedEPKcS1_S1_l(ptr noundef nonnull @.str.11, ptr noundef nonnull @__PRETTY_FUNCTION__._ZNK5boost10shared_ptrIN8QuantLib19StochasticProcess1D14discretizationEEptEv, ptr noundef nonnull @.str.12, i64 noundef 784)
  %.pre.i = load ptr, ptr %discretization_, align 8, !tbaa !70
  br label %_ZNK5boost10shared_ptrIN8QuantLib19StochasticProcess1D14discretizationEEptEv.exit

_ZNK5boost10shared_ptrIN8QuantLib19StochasticProcess1D14discretizationEEptEv.exit: ; preds = %entry, %cond.false.i
  %1 = phi ptr [ %0, %entry ], [ %.pre.i, %cond.false.i ]
  %vtable = load ptr, ptr %1, align 8, !tbaa !28
  %vfn = getelementptr inbounds i8, ptr %vtable, i64 32
  %2 = load ptr, ptr %vfn, align 8
  %call2 = tail call noundef double %2(ptr noundef nonnull align 8 dereferenceable(8) %1, ptr noundef nonnull align 8 dereferenceable(144) %this, double noundef %t0, double noundef %x0, double noundef %dt)
  ret double %call2
}